target datalayout = "e-m:e-p270:32:32-p271:32:32-p272:64:64-i64:64-i128:128-f80:128-n8:16:32:64-S128"
target triple = "x86_64-pc-linux-gnu"

%struct.DdNode = type { i32, i32, ptr, %union.anon, i64 }
%union.anon = type { %struct.DdChildren }
%struct.DdChildren = type { ptr, ptr }

; Function Attrs: nounwind uwtable
define internal void @ddSuppInteract(ptr noundef %0, ptr noundef %1) #0 {
  %3 = alloca ptr, align 8
  %4 = alloca ptr, align 8
  store ptr %0, ptr %3, align 8, !tbaa !29
  store ptr %1, ptr %4, align 8, !tbaa !34
  %5 = load ptr, ptr %3, align 8, !tbaa !29
  %6 = getelementptr inbounds nuw %struct.DdNode, ptr %5, i32 0, i32 0
  %7 = load i32, ptr %6, align 8, !tbaa !44
  %8 = icmp eq i32 %7, 2147483647
  br i1 %8, label %18, label %9

9:                                                ; preds = %2
  %10 = load ptr, ptr %3, align 8, !tbaa !29
  %11 = getelementptr inbounds nuw %struct.DdNode, ptr %10, i32 0, i32 3
  %12 = getelementptr inbounds nuw %struct.DdChildren, ptr %11, i32 0, i32 0
  %13 = load ptr, ptr %12, align 8, !tbaa !45
  %14 = ptrtoint ptr %13 to i64
  %15 = and i64 %14, 1
  %16 = trunc i64 %15 to i32
  %17 = icmp ne i32 %16, 0
  br i1 %17, label %18, label %19

18:                                               ; preds = %9, %2
  br label %57

19:                                               ; preds = %9
  %20 = load ptr, ptr %4, align 8, !tbaa !34
  %21 = load ptr, ptr %3, align 8, !tbaa !29
  %22 = getelementptr inbounds nuw %struct.DdNode, ptr %21, i32 0, i32 0
  %23 = load i32, ptr %22, align 8, !tbaa !44
  %24 = zext i32 %23 to i64
  %25 = getelementptr inbounds nuw i32, ptr %20, i64 %24
  store i32 1, ptr %25, align 4, !tbaa !8
  %26 = load ptr, ptr %3, align 8, !tbaa !29
  %27 = getelementptr inbounds nuw %struct.DdNode, ptr %26, i32 0, i32 3
  %28 = getelementptr inbounds nuw %struct.DdChildren, ptr %27, i32 0, i32 0
  %29 = load ptr, ptr %28, align 8, !tbaa !45
  %30 = load ptr, ptr %4, align 8, !tbaa !34
  call void @ddSuppInteract(ptr noundef %29, ptr noundef %30)
  %31 = load ptr, ptr %3, align 8, !tbaa !29
  %32 = getelementptr inbounds nuw %struct.DdNode, ptr %31, i32 0, i32 3
  %33 = getelementptr inbounds nuw %struct.DdChildren, ptr %32, i32 0, i32 1
  %34 = load ptr, ptr %33, align 8, !tbaa !45
  %35 = ptrtoint ptr %34 to i64
  %36 = and i64 %35, -2
  %37 = inttoptr i64 %36 to ptr
  %38 = load ptr, ptr %4, align 8, !tbaa !34
  call void @ddSuppInteract(ptr noundef %37, ptr noundef %38)
  %39 = load ptr, ptr %3, align 8, !tbaa !29
  %40 = getelementptr inbounds nuw %struct.DdNode, ptr %39, i32 0, i32 3
  %41 = getelementptr inbounds nuw %struct.DdChildren, ptr %40, i32 0, i32 0
  %42 = load ptr, ptr %41, align 8, !tbaa !45
  %43 = ptrtoint ptr %42 to i64
  %44 = or i64 %43, 1
  %45 = inttoptr i64 %44 to ptr
  %46 = load ptr, ptr %3, align 8, !tbaa !29
  %47 = getelementptr inbounds nuw %struct.DdNode, ptr %46, i32 0, i32 3
  %48 = getelementptr inbounds nuw %struct.DdChildren, ptr %47, i32 0, i32 0
  store ptr %45, ptr %48, align 8, !tbaa !45
  %49 = load ptr, ptr %3, align 8, !tbaa !29
  %50 = getelementptr inbounds nuw %struct.DdNode, ptr %49, i32 0, i32 2
  %51 = load ptr, ptr %50, align 8, !tbaa !39
  %52 = ptrtoint ptr %51 to i64
  %53 = or i64 %52, 1
  %54 = inttoptr i64 %53 to ptr
  %55 = load ptr, ptr %3, align 8, !tbaa !29
  %56 = getelementptr inbounds nuw %struct.DdNode, ptr %55, i32 0, i32 2
  store ptr %54, ptr %56, align 8, !tbaa !39
  br label %57

57:                                               ; preds = %19, %18
  ret void
}