; Function Attrs: nofree nosync nounwind memory(readwrite, inaccessiblemem: none) uwtable
define internal fastcc void @ddSuppInteract(ptr noundef captures(none) %0, ptr noundef nonnull %1) unnamed_addr #5 {
  %3 = load i32, ptr %0, align 8, !tbaa !42
  %4 = icmp eq i32 %3, 2147483647
  br i1 %4, label %common.ret12, label %5

5:                                                ; preds = %2
  %6 = getelementptr inbounds nuw i8, ptr %0, i64 16
  %7 = load ptr, ptr %6, align 8, !tbaa !43
  %8 = ptrtoint ptr %7 to i64
  %9 = and i64 %8, 1
  %.not = icmp eq i64 %9, 0
  br i1 %.not, label %10, label %common.ret12

common.ret12:                                     ; preds = %2, %5, %10
  ret void

10:                                               ; preds = %5
  %11 = zext i32 %3 to i64
  %12 = getelementptr inbounds nuw i32, ptr %1, i64 %11
  store i32 1, ptr %12, align 4, !tbaa !32
  %13 = load ptr, ptr %6, align 8, !tbaa !43
  tail call fastcc void @ddSuppInteract(ptr noundef %13, ptr noundef %1)
  %14 = getelementptr inbounds nuw i8, ptr %0, i64 24
  %15 = load ptr, ptr %14, align 8, !tbaa !43
  %16 = ptrtoint ptr %15 to i64
  %17 = and i64 %16, -2
  %18 = inttoptr i64 %17 to ptr
  tail call fastcc void @ddSuppInteract(ptr noundef %18, ptr noundef %1)
  %19 = load ptr, ptr %6, align 8, !tbaa !43
  %20 = ptrtoint ptr %19 to i64
  %21 = or i64 %20, 1
  %22 = inttoptr i64 %21 to ptr
  store ptr %22, ptr %6, align 8, !tbaa !43
  %23 = getelementptr inbounds nuw i8, ptr %0, i64 8
  %24 = load ptr, ptr %23, align 8, !tbaa !31
  %25 = ptrtoint ptr %24 to i64
  %26 = or i64 %25, 1
  %27 = inttoptr i64 %26 to ptr
  store ptr %27, ptr %23, align 8, !tbaa !31
  br label %common.ret12
}